target datalayout = "e-m:e-p270:32:32-p271:32:32-p272:64:64-i64:64-i128:128-f80:128-n8:16:32:64-S128"
target triple = "x86_64-pc-linux-gnu"

%struct.dlist_node = type { ptr, ptr }
%struct.CachedPlanSource = type { i32, ptr, ptr, i32, ptr, i32, ptr, ptr, i32, i8, ptr, ptr, ptr, ptr, ptr, ptr, ptr, i32, i8, i8, ptr, i8, i8, i8, i8, i32, %struct.dlist_node, double, double, i64, i64 }
%struct.CachedPlan = type { i32, ptr, i8, i8, i8, i32, i8, i32, i32, i32, ptr }

@.str.3 = private unnamed_addr constant [12 x i8] c"plancache.c\00", align 1
@.str.5 = private unnamed_addr constant [51 x i8] c"cannot move a saved cached plan to another context\00", align 1
@__func__.CachedPlanSetParentContext = private unnamed_addr constant [27 x i8] c"CachedPlanSetParentContext\00", align 1
@.str.6 = private unnamed_addr constant [54 x i8] c"cannot move a one-shot cached plan to another context\00", align 1

; Function Attrs: nounwind uwtable
define dso_local void @CachedPlanSetParentContext(ptr noundef %0, ptr noundef %1) #0 {
  %3 = alloca ptr, align 8
  %4 = alloca ptr, align 8
  store ptr %0, ptr %3, align 8
  store ptr %1, ptr %4, align 8
  %5 = load ptr, ptr %3, align 8
  %6 = getelementptr inbounds nuw %struct.CachedPlanSource, ptr %5, i32 0, i32 23
  %7 = load i8, ptr %6, align 2, !range !4, !noundef !5
  %8 = trunc i8 %7 to i1
  br i1 %8, label %9, label %19

9:                                                ; preds = %2
  br label %10

10:                                               ; preds = %9
  br i1 true, label %11, label %13

11:                                               ; preds = %10
  %12 = call zeroext i1 @errstart_cold(i32 noundef 21, ptr noundef null) #9
  br i1 %12, label %15, label %17

13:                                               ; preds = %10
  %14 = call zeroext i1 @errstart(i32 noundef 21, ptr noundef null)
  br i1 %14, label %15, label %17

15:                                               ; preds = %13, %11
  %16 = call i32 (ptr, ...) @errmsg_internal(ptr noundef @.str.5)
  call void @errfinish(ptr noundef @.str.3, i32 noundef 1507, ptr noundef @__func__.CachedPlanSetParentContext)
  br label %17

17:                                               ; preds = %15, %13, %11
  unreachable

18:                                               ; No predecessors!
  br label %19

19:                                               ; preds = %18, %2
  %20 = load ptr, ptr %3, align 8
  %21 = getelementptr inbounds nuw %struct.CachedPlanSource, ptr %20, i32 0, i32 21
  %22 = load i8, ptr %21, align 8, !range !4, !noundef !5
  %23 = trunc i8 %22 to i1
  br i1 %23, label %24, label %34

24:                                               ; preds = %19
  br label %25

25:                                               ; preds = %24
  br i1 true, label %26, label %28

26:                                               ; preds = %25
  %27 = call zeroext i1 @errstart_cold(i32 noundef 21, ptr noundef null) #9
  br i1 %27, label %30, label %32

28:                                               ; preds = %25
  %29 = call zeroext i1 @errstart(i32 noundef 21, ptr noundef null)
  br i1 %29, label %30, label %32

30:                                               ; preds = %28, %26
  %31 = call i32 (ptr, ...) @errmsg_internal(ptr noundef @.str.6)
  call void @errfinish(ptr noundef @.str.3, i32 noundef 1509, ptr noundef @__func__.CachedPlanSetParentContext)
  br label %32

32:                                               ; preds = %30, %28, %26
  unreachable

33:                                               ; No predecessors!
  br label %34

34:                                               ; preds = %33, %19
  %35 = load ptr, ptr %3, align 8
  %36 = getelementptr inbounds nuw %struct.CachedPlanSource, ptr %35, i32 0, i32 11
  %37 = load ptr, ptr %36, align 8
  %38 = load ptr, ptr %4, align 8
  call void @MemoryContextSetParent(ptr noundef %37, ptr noundef %38)
  %39 = load ptr, ptr %3, align 8
  %40 = getelementptr inbounds nuw %struct.CachedPlanSource, ptr %39, i32 0, i32 20
  %41 = load ptr, ptr %40, align 8
  %42 = icmp ne ptr %41, null
  br i1 %42, label %43, label %50

43:                                               ; preds = %34
  %44 = load ptr, ptr %3, align 8
  %45 = getelementptr inbounds nuw %struct.CachedPlanSource, ptr %44, i32 0, i32 20
  %46 = load ptr, ptr %45, align 8
  %47 = getelementptr inbounds nuw %struct.CachedPlan, ptr %46, i32 0, i32 10
  %48 = load ptr, ptr %47, align 8
  %49 = load ptr, ptr %4, align 8
  call void @MemoryContextSetParent(ptr noundef %48, ptr noundef %49)
  br label %50

50:                                               ; preds = %43, %34
  ret void
}