; Function Attrs: nounwind uwtable
define dso_local void @CachedPlanSetParentContext(ptr noundef readonly captures(none) %0, ptr noundef %1) local_unnamed_addr #0 {
  %3 = getelementptr inbounds nuw i8, ptr %0, i64 146
  %4 = load i8, ptr %3, align 2, !range !4, !noundef !5
  %5 = trunc nuw i8 %4 to i1
  br i1 %5, label %6, label %9

6:                                                ; preds = %2
  %7 = tail call zeroext i1 @errstart_cold(i32 noundef 21, ptr noundef null) #10
  tail call void @llvm.assume(i1 %7)
  %8 = tail call i32 (ptr, ...) @errmsg_internal(ptr noundef nonnull @.str.5) #9
  tail call void @errfinish(ptr noundef nonnull @.str.3, i32 noundef 1507, ptr noundef nonnull @__func__.CachedPlanSetParentContext) #9
  unreachable

9:                                                ; preds = %2
  %10 = getelementptr inbounds nuw i8, ptr %0, i64 144
  %11 = load i8, ptr %10, align 8, !range !4, !noundef !5
  %12 = trunc nuw i8 %11 to i1
  br i1 %12, label %13, label %16

13:                                               ; preds = %9
  %14 = tail call zeroext i1 @errstart_cold(i32 noundef 21, ptr noundef null) #10
  tail call void @llvm.assume(i1 %14)
  %15 = tail call i32 (ptr, ...) @errmsg_internal(ptr noundef nonnull @.str.6) #9
  tail call void @errfinish(ptr noundef nonnull @.str.3, i32 noundef 1509, ptr noundef nonnull @__func__.CachedPlanSetParentContext) #9
  unreachable

16:                                               ; preds = %9
  %17 = getelementptr inbounds nuw i8, ptr %0, i64 80
  %18 = load ptr, ptr %17, align 8
  tail call void @MemoryContextSetParent(ptr noundef %18, ptr noundef %1) #9
  %19 = getelementptr inbounds nuw i8, ptr %0, i64 136
  %20 = load ptr, ptr %19, align 8
  %.not = icmp eq ptr %20, null
  br i1 %.not, label %24, label %21

21:                                               ; preds = %16
  %22 = getelementptr inbounds nuw i8, ptr %20, i64 40
  %23 = load ptr, ptr %22, align 8
  tail call void @MemoryContextSetParent(ptr noundef %23, ptr noundef %1) #9
  br label %24

24:                                               ; preds = %21, %16
  ret void
}